(lp0
S'poi'
p1
aS'salary'
p2
aS'bonus'
p3
aS'total_payments'
p4
aS'total_stock_value'
p5
aS'expenses'
p6
aS'loan_advances'
p7
aS'from_messages'
p8
aS'other'
p9
aS'from_this_person_to_poi'
p10
aS'long_term_incentive'
p11
aS'from_poi_to_this_person'
p12
a.